target datalayout = "e-m:e-p270:32:32-p271:32:32-p272:64:64-i64:64-i128:128-f80:128-n8:16:32:64-S128"
target triple = "x86_64-unknown-linux-gnu"

%struct.VMStateDescription = type { ptr, i8, i8, i32, i32, i32, ptr, ptr, ptr, ptr, ptr, ptr, ptr, ptr }
%struct.DeviceClass = type { %struct.ObjectClass, [1 x i64], ptr, ptr, ptr, i8, i8, ptr, ptr, ptr, ptr, ptr }
%struct.ObjectClass = type { ptr, ptr, [4 x ptr], [4 x ptr], ptr, ptr }

@sdhci_vmstate = dso_local constant %struct.VMStateDescription { ptr @.str.5, i8 0, i8 0, i32 1, i32 1, i32 0, ptr null, ptr null, ptr null, ptr null, ptr null, ptr null, ptr @.compoundliteral, ptr @.compoundliteral.34 }, align 8
@.str.35 = private unnamed_addr constant [7 x i8] c"device\00", align 1
@.str.36 = private unnamed_addr constant [101 x i8] c"/home/dtcxzyw/WorkSpace/Projects/compilers/llvm-opt-benchmark/bench/qemu/qemu/include/hw/qdev-core.h\00", align 1
@__func__.DEVICE_CLASS = private unnamed_addr constant [13 x i8] c"DEVICE_CLASS\00", align 1

; Function Attrs: nounwind sspstrong uwtable
define internal void @set_bit(i64 noundef %nr, ptr noundef %addr) #0 {
entry:
  %nr.addr = alloca i64, align 8
  %addr.addr = alloca ptr, align 8
  %mask = alloca i64, align 8
  %p = alloca ptr, align 8
  store i64 %nr, ptr %nr.addr, align 8
  store ptr %addr, ptr %addr.addr, align 8
  %0 = load i64, ptr %nr.addr, align 8
  %rem = urem i64 %0, 64
  %shl = shl i64 1, %rem
  store i64 %shl, ptr %mask, align 8
  %1 = load ptr, ptr %addr.addr, align 8
  %2 = load i64, ptr %nr.addr, align 8
  %div = udiv i64 %2, 64
  %add.ptr = getelementptr i64, ptr %1, i64 %div
  store ptr %add.ptr, ptr %p, align 8
  %3 = load i64, ptr %mask, align 8
  %4 = load ptr, ptr %p, align 8
  %5 = load i64, ptr %4, align 8
  %or = or i64 %5, %3
  store i64 %or, ptr %4, align 8
  ret void
}

; Function Attrs: nounwind sspstrong uwtable
define internal ptr @DEVICE_CLASS(ptr noundef %klass) #0 {
entry:
  %klass.addr = alloca ptr, align 8
  store ptr %klass, ptr %klass.addr, align 8
  %0 = load ptr, ptr %klass.addr, align 8
  %call = call ptr @object_class_dynamic_cast_assert(ptr noundef %0, ptr noundef @.str.35, ptr noundef @.str.36, i32 noundef 77, ptr noundef @__func__.DEVICE_CLASS)
  ret ptr %call
}

; Function Attrs: nounwind sspstrong uwtable
define dso_local void @sdhci_common_class_init(ptr noundef %klass, ptr noundef %data) #0 {
entry:
  %klass.addr = alloca ptr, align 8
  %data.addr = alloca ptr, align 8
  %dc = alloca ptr, align 8
  store ptr %klass, ptr %klass.addr, align 8
  store ptr %data, ptr %data.addr, align 8
  %0 = load ptr, ptr %klass.addr, align 8
  %call = call ptr @DEVICE_CLASS(ptr noundef %0)
  store ptr %call, ptr %dc, align 8
  %1 = load ptr, ptr %dc, align 8
  %categories = getelementptr inbounds %struct.DeviceClass, ptr %1, i32 0, i32 1
  %arraydecay = getelementptr inbounds [1 x i64], ptr %categories, i64 0, i64 0
  call void @set_bit(i64 noundef 2, ptr noundef %arraydecay)
  %2 = load ptr, ptr %dc, align 8
  %vmsd = getelementptr inbounds %struct.DeviceClass, ptr %2, i32 0, i32 10
  store ptr @sdhci_vmstate, ptr %vmsd, align 8
  %3 = load ptr, ptr %dc, align 8
  %reset = getelementptr inbounds %struct.DeviceClass, ptr %3, i32 0, i32 7
  store ptr @sdhci_poweron_reset, ptr %reset, align 8
  ret void
}