; Function Attrs: nounwind sspstrong uwtable
define dso_local void @sdhci_common_class_init(ptr noundef %klass, ptr noundef readnone captures(none) %data) local_unnamed_addr #0 {
entry:
  %call.i = tail call ptr @object_class_dynamic_cast_assert(ptr noundef %klass, ptr noundef nonnull @.str.35, ptr noundef nonnull @.str.36, i32 noundef 77, ptr noundef nonnull @__func__.DEVICE_CLASS) #12
  %categories = getelementptr inbounds nuw i8, ptr %call.i, i64 96
  %0 = load i64, ptr %categories, align 8
  %or.i = or i64 %0, 4
  store i64 %or.i, ptr %categories, align 8
  %vmsd = getelementptr inbounds nuw i8, ptr %call.i, i64 160
  store ptr @sdhci_vmstate, ptr %vmsd, align 8
  %reset = getelementptr inbounds nuw i8, ptr %call.i, i64 136
  store ptr @sdhci_poweron_reset, ptr %reset, align 8
  ret void
}